; ModuleID = '28/41.c'
source_filename = "28/41.c"
target datalayout = "e-m:e-p270:32:32-p271:32:32-p272:64:64-i64:64-f80:128-n8:16:32:64-S128"
target triple = "x86_64-pc-linux-gnu"

@.str = private unnamed_addr constant [3 x i8] c"%s\00", align 1
@.str.1 = private unnamed_addr constant [3 x i8] c"%d\00", align 1
@.str.2 = private unnamed_addr constant [2 x i8] c",\00", align 1
@.str.3 = private unnamed_addr constant [2 x i8] c"\0A\00", align 1

; Function Attrs: noinline nounwind uwtable
define dso_local void @main() #0 {
  %1 = alloca [300 x [20 x i8]], align 16
  %2 = alloca i32, align 4
  %3 = alloca [300 x i32], align 16
  %4 = alloca i32, align 4
  store i32 0, i32* %2, align 4
  br label %5

5:                                                ; preds = %22, %0
  %6 = load i32, i32* %2, align 4
  %7 = sext i32 %6 to i64
  %8 = getelementptr inbounds [300 x [20 x i8]], [300 x [20 x i8]]* %1, i64 0, i64 %7
  %9 = getelementptr inbounds [20 x i8], [20 x i8]* %8, i64 0, i64 0
  %10 = call i32 (i8*, ...) @__isoc99_scanf(i8* getelementptr inbounds ([3 x i8], [3 x i8]* @.str, i64 0, i64 0), i8* %9)
  %11 = icmp ne i32 %10, -1
  br i1 %11, label %12, label %25

12:                                               ; preds = %5
  %13 = load i32, i32* %2, align 4
  %14 = sext i32 %13 to i64
  %15 = getelementptr inbounds [300 x [20 x i8]], [300 x [20 x i8]]* %1, i64 0, i64 %14
  %16 = getelementptr inbounds [20 x i8], [20 x i8]* %15, i64 0, i64 0
  %17 = call i64 @strlen(i8* %16) #3
  %18 = trunc i64 %17 to i32
  %19 = load i32, i32* %2, align 4
  %20 = sext i32 %19 to i64
  %21 = getelementptr inbounds [300 x i32], [300 x i32]* %3, i64 0, i64 %20
  store i32 %18, i32* %21, align 4
  br label %22

22:                                               ; preds = %12
  %23 = load i32, i32* %2, align 4
  %24 = add nsw i32 %23, 1
  store i32 %24, i32* %2, align 4
  br label %5

25:                                               ; preds = %5
  %26 = load i32, i32* %2, align 4
  store i32 %26, i32* %4, align 4
  store i32 0, i32* %2, align 4
  br label %27

27:                                               ; preds = %44, %25
  %28 = load i32, i32* %2, align 4
  %29 = load i32, i32* %4, align 4
  %30 = icmp slt i32 %28, %29
  br i1 %30, label %31, label %47

31:                                               ; preds = %27
  %32 = load i32, i32* %2, align 4
  %33 = sext i32 %32 to i64
  %34 = getelementptr inbounds [300 x i32], [300 x i32]* %3, i64 0, i64 %33
  %35 = load i32, i32* %34, align 4
  %36 = call i32 (i8*, ...) @printf(i8* getelementptr inbounds ([3 x i8], [3 x i8]* @.str.1, i64 0, i64 0), i32 %35)
  %37 = load i32, i32* %2, align 4
  %38 = load i32, i32* %4, align 4
  %39 = sub nsw i32 %38, 1
  %40 = icmp ne i32 %37, %39
  br i1 %40, label %41, label %43

41:                                               ; preds = %31
  %42 = call i32 (i8*, ...) @printf(i8* getelementptr inbounds ([2 x i8], [2 x i8]* @.str.2, i64 0, i64 0))
  br label %43

43:                                               ; preds = %41, %31
  br label %44

44:                                               ; preds = %43
  %45 = load i32, i32* %2, align 4
  %46 = add nsw i32 %45, 1
  store i32 %46, i32* %2, align 4
  br label %27

47:                                               ; preds = %27
  %48 = call i32 (i8*, ...) @printf(i8* getelementptr inbounds ([2 x i8], [2 x i8]* @.str.3, i64 0, i64 0))
  ret void
}

declare dso_local i32 @__isoc99_scanf(i8*, ...) #1

; Function Attrs: nounwind readonly
declare dso_local i64 @strlen(i8*) #2

declare dso_local i32 @printf(i8*, ...) #1


!llvm.module.flags = !{!0}
!llvm.ident = !{!1}

!0 = !{i32 1, !"wchar_size", i32 4}
!1 = !{!"clang version 10.0.0-4ubuntu1 "}
